target datalayout = "e-m:e-p270:32:32-p271:32:32-p272:64:64-i64:64-i128:128-f80:128-n8:16:32:64-S128"
target triple = "x86_64-pc-linux-gnu"

%struct.strbuf = type { i64, i64, ptr }
%struct.dir_struct = type { i32, i32, i32, ptr, ptr, ptr, ptr, %struct.dir_struct_internal }
%struct.dir_struct_internal = type { i32, i32, [3 x %struct.exclude_list_group], ptr, ptr, %struct.strbuf, %struct.oid_stat, %struct.oid_stat, i32, i32, i32 }
%struct.exclude_list_group = type { i32, i32, ptr }
%struct.oid_stat = type { %struct.stat_data, %struct.object_id, i32 }
%struct.stat_data = type { %struct.cache_time, %struct.cache_time, i32, i32, i32, i32, i32 }
%struct.cache_time = type { i32, i32 }
%struct.object_id = type { [32 x i8], i32 }
%struct.hashmap = type { ptr, ptr, ptr, i32, i32, i32, i32, i8 }
%struct.pattern_list = type { i32, i32, ptr, ptr, i32, i32, %struct.hashmap, %struct.hashmap }

@.str.34 = private unnamed_addr constant [27 x i8] c"size_t overflow: %lu * %lu\00", align 1

; Function Attrs: inlinehint nounwind uwtable
define internal i64 @st_mult(i64 noundef %0, i64 noundef %1) #3 {
  %3 = alloca i64, align 8
  %4 = alloca i64, align 8
  store i64 %0, ptr %3, align 8, !tbaa !19
  store i64 %1, ptr %4, align 8, !tbaa !19
  %5 = load i64, ptr %3, align 8, !tbaa !19
  %6 = icmp ne i64 %5, 0
  br i1 %6, label %7, label %15

7:                                                ; preds = %2
  %8 = load i64, ptr %4, align 8, !tbaa !19
  %9 = load i64, ptr %3, align 8, !tbaa !19
  %10 = udiv i64 -1, %9
  %11 = icmp ugt i64 %8, %10
  br i1 %11, label %12, label %15

12:                                               ; preds = %7
  %13 = load i64, ptr %3, align 8, !tbaa !19
  %14 = load i64, ptr %4, align 8, !tbaa !19
  call void (ptr, ...) @die(ptr noundef @.str.34, i64 noundef %13, i64 noundef %14) #14
  unreachable

15:                                               ; preds = %7, %2
  %16 = load i64, ptr %3, align 8, !tbaa !19
  %17 = load i64, ptr %4, align 8, !tbaa !19
  %18 = mul i64 %16, %17
  ret i64 %18
}

; Function Attrs: nounwind uwtable
define dso_local ptr @add_pattern_list(ptr noundef %0, i32 noundef %1, ptr noundef %2) #0 {
  %4 = alloca ptr, align 8
  %5 = alloca i32, align 4
  %6 = alloca ptr, align 8
  %7 = alloca ptr, align 8
  %8 = alloca ptr, align 8
  store ptr %0, ptr %4, align 8, !tbaa !39
  store i32 %1, ptr %5, align 4, !tbaa !16
  store ptr %2, ptr %6, align 8, !tbaa !13
  call void @llvm.lifetime.start.p0(i64 8, ptr %7) #12
  call void @llvm.lifetime.start.p0(i64 8, ptr %8) #12
  %9 = load ptr, ptr %4, align 8, !tbaa !39
  %10 = getelementptr inbounds nuw %struct.dir_struct, ptr %9, i32 0, i32 7
  %11 = getelementptr inbounds nuw %struct.dir_struct_internal, ptr %10, i32 0, i32 2
  %12 = load i32, ptr %5, align 4, !tbaa !16
  %13 = sext i32 %12 to i64
  %14 = getelementptr inbounds [3 x %struct.exclude_list_group], ptr %11, i64 0, i64 %13
  store ptr %14, ptr %8, align 8, !tbaa !153
  br label %15

15:                                               ; preds = %3
  %16 = load ptr, ptr %8, align 8, !tbaa !153
  %17 = getelementptr inbounds nuw %struct.exclude_list_group, ptr %16, i32 0, i32 0
  %18 = load i32, ptr %17, align 8, !tbaa !155
  %19 = add nsw i32 %18, 1
  %20 = load ptr, ptr %8, align 8, !tbaa !153
  %21 = getelementptr inbounds nuw %struct.exclude_list_group, ptr %20, i32 0, i32 1
  %22 = load i32, ptr %21, align 4, !tbaa !157
  %23 = icmp sgt i32 %19, %22
  br i1 %23, label %24, label %64

24:                                               ; preds = %15
  %25 = load ptr, ptr %8, align 8, !tbaa !153
  %26 = getelementptr inbounds nuw %struct.exclude_list_group, ptr %25, i32 0, i32 1
  %27 = load i32, ptr %26, align 4, !tbaa !157
  %28 = add nsw i32 %27, 16
  %29 = mul nsw i32 %28, 3
  %30 = sdiv i32 %29, 2
  %31 = load ptr, ptr %8, align 8, !tbaa !153
  %32 = getelementptr inbounds nuw %struct.exclude_list_group, ptr %31, i32 0, i32 0
  %33 = load i32, ptr %32, align 8, !tbaa !155
  %34 = add nsw i32 %33, 1
  %35 = icmp slt i32 %30, %34
  br i1 %35, label %36, label %43

36:                                               ; preds = %24
  %37 = load ptr, ptr %8, align 8, !tbaa !153
  %38 = getelementptr inbounds nuw %struct.exclude_list_group, ptr %37, i32 0, i32 0
  %39 = load i32, ptr %38, align 8, !tbaa !155
  %40 = add nsw i32 %39, 1
  %41 = load ptr, ptr %8, align 8, !tbaa !153
  %42 = getelementptr inbounds nuw %struct.exclude_list_group, ptr %41, i32 0, i32 1
  store i32 %40, ptr %42, align 4, !tbaa !157
  br label %52

43:                                               ; preds = %24
  %44 = load ptr, ptr %8, align 8, !tbaa !153
  %45 = getelementptr inbounds nuw %struct.exclude_list_group, ptr %44, i32 0, i32 1
  %46 = load i32, ptr %45, align 4, !tbaa !157
  %47 = add nsw i32 %46, 16
  %48 = mul nsw i32 %47, 3
  %49 = sdiv i32 %48, 2
  %50 = load ptr, ptr %8, align 8, !tbaa !153
  %51 = getelementptr inbounds nuw %struct.exclude_list_group, ptr %50, i32 0, i32 1
  store i32 %49, ptr %51, align 4, !tbaa !157
  br label %52

52:                                               ; preds = %43, %36
  %53 = load ptr, ptr %8, align 8, !tbaa !153
  %54 = getelementptr inbounds nuw %struct.exclude_list_group, ptr %53, i32 0, i32 2
  %55 = load ptr, ptr %54, align 8, !tbaa !158
  %56 = load ptr, ptr %8, align 8, !tbaa !153
  %57 = getelementptr inbounds nuw %struct.exclude_list_group, ptr %56, i32 0, i32 1
  %58 = load i32, ptr %57, align 4, !tbaa !157
  %59 = sext i32 %58 to i64
  %60 = call i64 @st_mult(i64 noundef 128, i64 noundef %59)
  %61 = call ptr @xrealloc(ptr noundef %55, i64 noundef %60)
  %62 = load ptr, ptr %8, align 8, !tbaa !153
  %63 = getelementptr inbounds nuw %struct.exclude_list_group, ptr %62, i32 0, i32 2
  store ptr %61, ptr %63, align 8, !tbaa !158
  br label %64

64:                                               ; preds = %52, %15
  br label %65

65:                                               ; preds = %64
  br label %66

66:                                               ; preds = %65
  %67 = load ptr, ptr %8, align 8, !tbaa !153
  %68 = getelementptr inbounds nuw %struct.exclude_list_group, ptr %67, i32 0, i32 2
  %69 = load ptr, ptr %68, align 8, !tbaa !158
  %70 = load ptr, ptr %8, align 8, !tbaa !153
  %71 = getelementptr inbounds nuw %struct.exclude_list_group, ptr %70, i32 0, i32 0
  %72 = load i32, ptr %71, align 8, !tbaa !155
  %73 = add nsw i32 %72, 1
  store i32 %73, ptr %71, align 8, !tbaa !155
  %74 = sext i32 %72 to i64
  %75 = getelementptr inbounds %struct.pattern_list, ptr %69, i64 %74
  store ptr %75, ptr %7, align 8, !tbaa !123
  %76 = load ptr, ptr %7, align 8, !tbaa !123
  call void @llvm.memset.p0.i64(ptr align 8 %76, i8 0, i64 128, i1 false)
  %77 = load ptr, ptr %6, align 8, !tbaa !13
  %78 = load ptr, ptr %7, align 8, !tbaa !123
  %79 = getelementptr inbounds nuw %struct.pattern_list, ptr %78, i32 0, i32 2
  store ptr %77, ptr %79, align 8, !tbaa !159
  %80 = load ptr, ptr %7, align 8, !tbaa !123
  call void @llvm.lifetime.end.p0(i64 8, ptr %8) #12
  call void @llvm.lifetime.end.p0(i64 8, ptr %7) #12
  ret ptr %80
}