; Function Attrs: nounwind uwtable
define dso_local noundef ptr @add_pattern_list(ptr noundef captures(none) %0, i32 noundef %1, ptr noundef %2) local_unnamed_addr #0 {
  %4 = getelementptr inbounds nuw i8, ptr %0, i64 56
  %5 = sext i32 %1 to i64
  %6 = getelementptr inbounds [3 x %struct.exclude_list_group], ptr %4, i64 0, i64 %5
  %7 = load i32, ptr %6, align 8, !tbaa !60
  %8 = getelementptr inbounds nuw i8, ptr %6, i64 4
  %9 = load i32, ptr %8, align 4, !tbaa !141
  %.not = icmp slt i32 %7, %9
  br i1 %.not, label %._crit_edge, label %10

._crit_edge:                                      ; preds = %3
  %.phi.trans.insert = getelementptr inbounds nuw i8, ptr %6, i64 8
  %.pre = load ptr, ptr %.phi.trans.insert, align 8, !tbaa !142
  br label %21

10:                                               ; preds = %3
  %11 = add nsw i32 %7, 1
  %12 = mul i32 %9, 3
  %13 = add i32 %12, 48
  %14 = sdiv i32 %13, 2
  %.not20 = icmp sgt i32 %14, %7
  %. = select i1 %.not20, i32 %14, i32 %11
  store i32 %., ptr %8, align 4, !tbaa !141
  %15 = sext i32 %. to i64
  %mul.ov.i = icmp slt i32 %., 0
  br i1 %mul.ov.i, label %16, label %st_mult.exit

16:                                               ; preds = %10
  tail call void (ptr, ...) @die(ptr noundef nonnull @.str.34, i64 noundef 128, i64 noundef %15) #29
  unreachable

st_mult.exit:                                     ; preds = %10
  %17 = getelementptr inbounds nuw i8, ptr %6, i64 8
  %18 = load ptr, ptr %17, align 8, !tbaa !142
  %19 = shl nuw nsw i64 %15, 7
  %20 = tail call ptr @xrealloc(ptr noundef %18, i64 noundef %19) #27
  store ptr %20, ptr %17, align 8, !tbaa !142
  %.pre21 = load i32, ptr %6, align 8, !tbaa !60
  br label %21

21:                                               ; preds = %._crit_edge, %st_mult.exit
  %22 = phi i32 [ %7, %._crit_edge ], [ %.pre21, %st_mult.exit ]
  %23 = phi ptr [ %.pre, %._crit_edge ], [ %20, %st_mult.exit ]
  %24 = add nsw i32 %22, 1
  store i32 %24, ptr %6, align 8, !tbaa !60
  %25 = sext i32 %22 to i64
  %26 = getelementptr inbounds %struct.pattern_list, ptr %23, i64 %25
  tail call void @llvm.memset.p0.i64(ptr noundef nonnull align 8 dereferenceable(128) %26, i8 0, i64 128, i1 false)
  %27 = getelementptr inbounds nuw i8, ptr %26, i64 8
  store ptr %2, ptr %27, align 8, !tbaa !143
  ret ptr %26
}